; Function Attrs: nounwind uwtable
define ptr @l___private_Lean_Compiler_IR_FreeVars_0__Lean_IR_MaxIndex_collectArg(ptr noundef %0, ptr noundef %1) local_unnamed_addr #0 {
  %3 = ptrtoint ptr %0 to i64
  %4 = and i64 %3, 1
  %.not.i = icmp eq i64 %4, 0
  br i1 %.not.i, label %8, label %5

5:                                                ; preds = %2
  %6 = lshr i64 %3, 1
  %7 = trunc i64 %6 to i32
  br label %lean_obj_tag.exit

8:                                                ; preds = %2
  %9 = getelementptr i8, ptr %0, i64 4
  %.val.i = load i32, ptr %9, align 4
  %10 = lshr i32 %.val.i, 24
  br label %lean_obj_tag.exit

lean_obj_tag.exit:                                ; preds = %5, %8
  %.0.i13 = phi i32 [ %7, %5 ], [ %10, %8 ]
  %11 = icmp eq i32 %.0.i13, 0
  br i1 %11, label %12, label %35

12:                                               ; preds = %lean_obj_tag.exit
  %13 = getelementptr inbounds nuw i8, ptr %0, i64 8
  %14 = load ptr, ptr %13, align 8, !tbaa !13
  %15 = ptrtoint ptr %1 to i64
  %16 = and i64 %15, 1
  %.not25 = icmp eq i64 %16, 0
  br i1 %.not25, label %lean_nat_lt.exit.thread23, label %17, !prof !11

17:                                               ; preds = %12
  %18 = ptrtoint ptr %14 to i64
  %19 = and i64 %18, 1
  %.not26 = icmp eq i64 %19, 0
  br i1 %.not26, label %lean_nat_lt.exit, label %lean_nat_lt.exit.thread, !prof !11

lean_nat_lt.exit:                                 ; preds = %17
  %20 = tail call zeroext i1 @lean_nat_big_lt(ptr noundef %1, ptr noundef %14) #3
  br i1 %20, label %.thread, label %lean_inc.exit12

lean_nat_lt.exit.thread23:                        ; preds = %12
  %21 = tail call zeroext i1 @lean_nat_big_lt(ptr noundef %1, ptr noundef %14) #3
  br i1 %21, label %28, label %22

lean_nat_lt.exit.thread:                          ; preds = %17
  %.not27 = icmp ult ptr %1, %14
  %spec.select = select i1 %.not27, ptr %14, ptr %1
  br label %lean_inc.exit12

22:                                               ; preds = %lean_nat_lt.exit.thread23
  %.val.i14 = load i32, ptr %1, align 4, !tbaa !4
  %23 = icmp sgt i32 %.val.i14, 0
  br i1 %23, label %24, label %26, !prof !9

24:                                               ; preds = %22
  %25 = add nuw i32 %.val.i14, 1
  store i32 %25, ptr %1, align 4, !tbaa !4
  br label %lean_inc.exit12

26:                                               ; preds = %22
  %.not.i15 = icmp eq i32 %.val.i14, 0
  br i1 %.not.i15, label %lean_inc.exit12, label %27

27:                                               ; preds = %26
  tail call void @lean_inc_ref_cold(ptr noundef nonnull %1) #3
  br label %lean_inc.exit12

28:                                               ; preds = %lean_nat_lt.exit.thread23
  %.pre = ptrtoint ptr %14 to i64
  %.pre29 = and i64 %.pre, 1
  %29 = icmp eq i64 %.pre29, 0
  br i1 %29, label %.thread, label %lean_inc.exit12

.thread:                                          ; preds = %lean_nat_lt.exit, %28
  %.val.i16 = load i32, ptr %14, align 4, !tbaa !4
  %30 = icmp sgt i32 %.val.i16, 0
  br i1 %30, label %31, label %33, !prof !9

31:                                               ; preds = %.thread
  %32 = add nuw i32 %.val.i16, 1
  store i32 %32, ptr %14, align 4, !tbaa !4
  br label %lean_inc.exit12

33:                                               ; preds = %.thread
  %.not.i17 = icmp eq i32 %.val.i16, 0
  br i1 %.not.i17, label %lean_inc.exit12, label %34

34:                                               ; preds = %33
  tail call void @lean_inc_ref_cold(ptr noundef nonnull %14) #3
  br label %lean_inc.exit12

35:                                               ; preds = %lean_obj_tag.exit
  %36 = ptrtoint ptr %1 to i64
  %37 = and i64 %36, 1
  %.not = icmp eq i64 %37, 0
  br i1 %.not, label %38, label %lean_inc.exit12

38:                                               ; preds = %35
  %.val.i19 = load i32, ptr %1, align 4, !tbaa !4
  %39 = icmp sgt i32 %.val.i19, 0
  br i1 %39, label %40, label %42, !prof !9

40:                                               ; preds = %38
  %41 = add nuw i32 %.val.i19, 1
  store i32 %41, ptr %1, align 4, !tbaa !4
  br label %lean_inc.exit12

42:                                               ; preds = %38
  %.not.i20 = icmp eq i32 %.val.i19, 0
  br i1 %.not.i20, label %lean_inc.exit12, label %43

43:                                               ; preds = %42
  tail call void @lean_inc_ref_cold(ptr noundef nonnull %1) #3
  br label %lean_inc.exit12

lean_inc.exit12:                                  ; preds = %lean_nat_lt.exit.thread, %lean_nat_lt.exit, %35, %40, %42, %43, %28, %31, %33, %34, %24, %26, %27
  %.1 = phi ptr [ %1, %27 ], [ %1, %26 ], [ %1, %24 ], [ %14, %34 ], [ %14, %33 ], [ %14, %31 ], [ %14, %28 ], [ %1, %43 ], [ %1, %42 ], [ %1, %40 ], [ %1, %35 ], [ %1, %lean_nat_lt.exit ], [ %spec.select, %lean_nat_lt.exit.thread ]
  ret ptr %.1
}